target datalayout = "e-m:e-p270:32:32-p271:32:32-p272:64:64-i64:64-i128:128-f80:128-n8:16:32:64-S128"
target triple = "x86_64-unknown-linux-gnu"

%"class.testing::MatcherDescriberInterface" = type { ptr }
%"class.absl::Span.237" = type { ptr, i64 }
%"class.absl::container_internal::(anonymous namespace)::IsSameSliceMatcherP<absl::Span<absl::container_internal::(anonymous namespace)::Int128>>::gmock_Impl" = type { %"class.testing::MatcherInterface.525", %"class.absl::Span.237" }
%"class.testing::MatcherInterface.525" = type { %"class.testing::MatcherDescriberInterface" }

; Function Attrs: mustprogress nounwind uwtable
define internal noundef ptr @_ZNK4absl4SpanINS_18container_internal12_GLOBAL__N_16Int128EE4dataEv(ptr noundef nonnull align 8 dereferenceable(16) %this) #7 align 2 {
entry:
  %this.addr = alloca ptr, align 8
  store ptr %this, ptr %this.addr, align 8
  %this1 = load ptr, ptr %this.addr, align 8
  %ptr_ = getelementptr inbounds %"class.absl::Span.237", ptr %this1, i32 0, i32 0
  %0 = load ptr, ptr %ptr_, align 8
  ret ptr %0
}

; Function Attrs: mustprogress nounwind uwtable
define internal noundef i64 @_ZNK4absl4SpanINS_18container_internal12_GLOBAL__N_16Int128EE4sizeEv(ptr noundef nonnull align 8 dereferenceable(16) %this) #7 align 2 {
entry:
  %this.addr = alloca ptr, align 8
  store ptr %this, ptr %this.addr, align 8
  %this1 = load ptr, ptr %this.addr, align 8
  %len_ = getelementptr inbounds %"class.absl::Span.237", ptr %this1, i32 0, i32 1
  %0 = load i64, ptr %len_, align 8
  ret i64 %0
}

; Function Attrs: mustprogress nounwind uwtable
define internal noundef zeroext i1 @_ZNK4absl18container_internal12_GLOBAL__N_119IsSameSliceMatcherPINS_4SpanINS1_6Int128EEEE10gmock_ImplIRKS5_E15MatchAndExplainES9_PN7testing19MatchResultListenerE(ptr noundef nonnull align 8 dereferenceable(24) %this, ptr noundef nonnull align 8 dereferenceable(16) %arg, ptr noundef %result_listener) unnamed_addr #7 align 2 {
entry:
  %this.addr = alloca ptr, align 8
  %arg.addr = alloca ptr, align 8
  %result_listener.addr = alloca ptr, align 8
  store ptr %this, ptr %this.addr, align 8
  store ptr %arg, ptr %arg.addr, align 8
  store ptr %result_listener, ptr %result_listener.addr, align 8
  %this1 = load ptr, ptr %this.addr, align 8
  %0 = load ptr, ptr %arg.addr, align 8
  %call = call noundef i64 @_ZNK4absl4SpanINS_18container_internal12_GLOBAL__N_16Int128EE4sizeEv(ptr noundef nonnull align 8 dereferenceable(16) %0) #3
  %slice = getelementptr inbounds %"class.absl::container_internal::(anonymous namespace)::IsSameSliceMatcherP<absl::Span<absl::container_internal::(anonymous namespace)::Int128>>::gmock_Impl", ptr %this1, i32 0, i32 1
  %call2 = call noundef i64 @_ZNK4absl4SpanINS_18container_internal12_GLOBAL__N_16Int128EE4sizeEv(ptr noundef nonnull align 8 dereferenceable(16) %slice) #3
  %cmp = icmp eq i64 %call, %call2
  br i1 %cmp, label %land.rhs, label %land.end

land.rhs:                                         ; preds = %entry
  %1 = load ptr, ptr %arg.addr, align 8
  %call3 = call noundef ptr @_ZNK4absl4SpanINS_18container_internal12_GLOBAL__N_16Int128EE4dataEv(ptr noundef nonnull align 8 dereferenceable(16) %1) #3
  %slice4 = getelementptr inbounds %"class.absl::container_internal::(anonymous namespace)::IsSameSliceMatcherP<absl::Span<absl::container_internal::(anonymous namespace)::Int128>>::gmock_Impl", ptr %this1, i32 0, i32 1
  %call5 = call noundef ptr @_ZNK4absl4SpanINS_18container_internal12_GLOBAL__N_16Int128EE4dataEv(ptr noundef nonnull align 8 dereferenceable(16) %slice4) #3
  %cmp6 = icmp eq ptr %call3, %call5
  br label %land.end

land.end:                                         ; preds = %land.rhs, %entry
  %2 = phi i1 [ false, %entry ], [ %cmp6, %land.rhs ]
  ret i1 %2
}